; Function Attrs: nounwind uwtable
define i32 @Abc_SclCountNearCriticalNodes(ptr noundef readonly captures(none) %0) local_unnamed_addr #0 {
  %2 = tail call ptr @Abc_SclFindCriticalCoWindow(ptr noundef %0, i32 noundef 5)
  %3 = tail call ptr @Abc_SclFindCriticalNodeWindow(ptr noundef %0, ptr noundef %2, i32 noundef 5, i32 noundef 0)
  %4 = getelementptr i8, ptr %3, i64 4
  %.val = load i32, ptr %4, align 4, !tbaa !28
  %5 = icmp sgt i32 %.val, 0
  br i1 %5, label %.lr.ph.i, label %Abc_SclUnmarkCriticalNodeWindow.exit

.lr.ph.i:                                         ; preds = %1
  %6 = getelementptr inbounds nuw i8, ptr %0, i64 8
  %7 = getelementptr i8, ptr %3, i64 8
  %.val.i = load ptr, ptr %7, align 8, !tbaa !30
  %8 = zext nneg i32 %.val to i64
  br label %9

9:                                                ; preds = %23, %.lr.ph.i
  %indvars.iv.i = phi i64 [ 0, %.lr.ph.i ], [ %indvars.iv.next.i, %23 ]
  %10 = load ptr, ptr %6, align 8, !tbaa !48
  %11 = getelementptr inbounds nuw i32, ptr %.val.i, i64 %indvars.iv.i
  %12 = load i32, ptr %11, align 4, !tbaa !31
  %13 = getelementptr i8, ptr %10, i64 32
  %.val9.i = load ptr, ptr %13, align 8, !tbaa !34
  %14 = getelementptr i8, ptr %.val9.i, i64 8
  %.val9.val.i = load ptr, ptr %14, align 8, !tbaa !35
  %15 = sext i32 %12 to i64
  %16 = getelementptr inbounds ptr, ptr %.val9.val.i, i64 %15
  %17 = load ptr, ptr %16, align 8, !tbaa !37
  %18 = icmp eq ptr %17, null
  br i1 %18, label %23, label %19

19:                                               ; preds = %9
  %20 = getelementptr inbounds nuw i8, ptr %17, i64 20
  %21 = load i32, ptr %20, align 4
  %22 = and i32 %21, -17
  store i32 %22, ptr %20, align 4
  br label %23

23:                                               ; preds = %19, %9
  %indvars.iv.next.i = add nuw nsw i64 %indvars.iv.i, 1
  %exitcond.not = icmp eq i64 %indvars.iv.next.i, %8
  br i1 %exitcond.not, label %Abc_SclUnmarkCriticalNodeWindow.exit, label %9, !llvm.loop !76

Abc_SclUnmarkCriticalNodeWindow.exit:             ; preds = %23, %1
  %24 = getelementptr i8, ptr %2, i64 4
  %.val810.i10 = load i32, ptr %24, align 4, !tbaa !28
  %25 = icmp sgt i32 %.val810.i10, 0
  br i1 %25, label %.lr.ph.i11, label %Abc_SclUnmarkCriticalNodeWindow.exit20

.lr.ph.i11:                                       ; preds = %Abc_SclUnmarkCriticalNodeWindow.exit
  %26 = getelementptr inbounds nuw i8, ptr %0, i64 8
  %27 = getelementptr i8, ptr %2, i64 8
  %.val.i14 = load ptr, ptr %27, align 8, !tbaa !30
  %28 = zext nneg i32 %.val810.i10 to i64
  br label %29

29:                                               ; preds = %43, %.lr.ph.i11
  %indvars.iv.i13 = phi i64 [ 0, %.lr.ph.i11 ], [ %indvars.iv.next.i19, %43 ]
  %30 = load ptr, ptr %26, align 8, !tbaa !48
  %31 = getelementptr inbounds nuw i32, ptr %.val.i14, i64 %indvars.iv.i13
  %32 = load i32, ptr %31, align 4, !tbaa !31
  %33 = getelementptr i8, ptr %30, i64 32
  %.val9.i15 = load ptr, ptr %33, align 8, !tbaa !34
  %34 = getelementptr i8, ptr %.val9.i15, i64 8
  %.val9.val.i16 = load ptr, ptr %34, align 8, !tbaa !35
  %35 = sext i32 %32 to i64
  %36 = getelementptr inbounds ptr, ptr %.val9.val.i16, i64 %35
  %37 = load ptr, ptr %36, align 8, !tbaa !37
  %38 = icmp eq ptr %37, null
  br i1 %38, label %43, label %39

39:                                               ; preds = %29
  %40 = getelementptr inbounds nuw i8, ptr %37, i64 20
  %41 = load i32, ptr %40, align 4
  %42 = and i32 %41, -17
  store i32 %42, ptr %40, align 4
  br label %43

43:                                               ; preds = %39, %29
  %indvars.iv.next.i19 = add nuw nsw i64 %indvars.iv.i13, 1
  %exitcond23.not = icmp eq i64 %indvars.iv.next.i19, %28
  br i1 %exitcond23.not, label %Abc_SclUnmarkCriticalNodeWindow.exit20.thread, label %29, !llvm.loop !76

Abc_SclUnmarkCriticalNodeWindow.exit20:           ; preds = %Abc_SclUnmarkCriticalNodeWindow.exit
  %.phi.trans.insert = getelementptr inbounds nuw i8, ptr %2, i64 8
  %.pre = load ptr, ptr %.phi.trans.insert, align 8, !tbaa !30
  %.not.i = icmp eq ptr %.pre, null
  br i1 %.not.i, label %Vec_IntFree.exit, label %Abc_SclUnmarkCriticalNodeWindow.exit20.thread

Abc_SclUnmarkCriticalNodeWindow.exit20.thread:    ; preds = %43, %Abc_SclUnmarkCriticalNodeWindow.exit20
  %44 = phi ptr [ %.pre, %Abc_SclUnmarkCriticalNodeWindow.exit20 ], [ %.val.i14, %43 ]
  tail call void @free(ptr noundef nonnull %44) #27
  br label %Vec_IntFree.exit

Vec_IntFree.exit:                                 ; preds = %Abc_SclUnmarkCriticalNodeWindow.exit20, %Abc_SclUnmarkCriticalNodeWindow.exit20.thread
  tail call void @free(ptr noundef nonnull %2) #27
  %45 = getelementptr inbounds nuw i8, ptr %3, i64 8
  %46 = load ptr, ptr %45, align 8, !tbaa !30
  %.not.i21 = icmp eq ptr %46, null
  br i1 %.not.i21, label %Vec_IntFree.exit22, label %47

47:                                               ; preds = %Vec_IntFree.exit
  tail call void @free(ptr noundef nonnull %46) #27
  br label %Vec_IntFree.exit22

Vec_IntFree.exit22:                               ; preds = %Vec_IntFree.exit, %47
  tail call void @free(ptr noundef nonnull %3) #27
  ret i32 %.val
}